; ModuleID = 'source-C-CXX/34/92.c'
source_filename = "source-C-CXX/34/92.c"
target datalayout = "e-m:e-p270:32:32-p271:32:32-p272:64:64-i64:64-f80:128-n8:16:32:64-S128"
target triple = "x86_64-pc-linux-gnu"

@.str = private unnamed_addr constant [6 x i8] c"%d,%d\00", align 1
@.str.1 = private unnamed_addr constant [3 x i8] c"%d\00", align 1
@.str.2 = private unnamed_addr constant [6 x i8] c"%d+%d\00", align 1
@.str.3 = private unnamed_addr constant [3 x i8] c"No\00", align 1

; Function Attrs: nofree nounwind sspstrong uwtable
define dso_local void @main() local_unnamed_addr #0 {
  %1 = alloca i32, align 4
  %2 = alloca i32, align 4
  %3 = alloca [8 x [8 x i32]], align 16
  %4 = bitcast i32* %1 to i8*
  call void @llvm.lifetime.start.p0i8(i64 4, i8* nonnull %4) #3
  %5 = bitcast i32* %2 to i8*
  call void @llvm.lifetime.start.p0i8(i64 4, i8* nonnull %5) #3
  %6 = bitcast [8 x [8 x i32]]* %3 to i8*
  call void @llvm.lifetime.start.p0i8(i64 256, i8* nonnull %6) #3
  %7 = call i32 (i8*, ...) @__isoc99_scanf(i8* getelementptr inbounds ([6 x i8], [6 x i8]* @.str, i64 0, i64 0), i32* nonnull %1, i32* nonnull %2)
  %8 = load i32, i32* %1, align 4, !tbaa !5
  %9 = icmp sgt i32 %8, 0
  br i1 %9, label %10, label %125

10:                                               ; preds = %0
  %11 = load i32, i32* %2, align 4, !tbaa !5
  %12 = icmp sgt i32 %11, 0
  br i1 %12, label %13, label %85

13:                                               ; preds = %10, %113
  %14 = phi i32 [ %114, %113 ], [ %8, %10 ]
  %15 = phi i32 [ %115, %113 ], [ %11, %10 ]
  %16 = phi i64 [ %116, %113 ], [ 0, %10 ]
  %17 = icmp sgt i32 %15, 0
  br i1 %17, label %103, label %113

18:                                               ; preds = %113
  %19 = icmp sgt i32 %114, 0
  br i1 %19, label %20, label %125

20:                                               ; preds = %18
  %21 = icmp sgt i32 %115, 1
  br i1 %21, label %22, label %85

22:                                               ; preds = %20
  %23 = zext i32 %114 to i64
  %24 = zext i32 %115 to i64
  %25 = add nsw i64 %24, -1
  %26 = and i64 %25, 1
  %27 = icmp eq i32 %115, 2
  %28 = and i64 %25, -2
  %29 = icmp eq i64 %26, 0
  br label %30

30:                                               ; preds = %22, %40
  %31 = phi i64 [ 0, %22 ], [ %41, %40 ]
  br i1 %27, label %67, label %43

32:                                               ; preds = %34
  %33 = icmp eq i64 %39, %23
  br i1 %33, label %119, label %34, !llvm.loop !9

34:                                               ; preds = %80, %32
  %35 = phi i64 [ 0, %80 ], [ %39, %32 ]
  %36 = getelementptr inbounds [8 x [8 x i32]], [8 x [8 x i32]]* %3, i64 0, i64 %35, i64 %82
  %37 = load i32, i32* %36, align 4, !tbaa !5
  %38 = icmp slt i32 %37, %84
  %39 = add nuw nsw i64 %35, 1
  br i1 %38, label %40, label %32

40:                                               ; preds = %34
  %41 = add nuw nsw i64 %31, 1
  %42 = icmp eq i64 %41, %23
  br i1 %42, label %129, label %30, !llvm.loop !11

43:                                               ; preds = %30, %43
  %44 = phi i64 [ %64, %43 ], [ 1, %30 ]
  %45 = phi i32 [ %63, %43 ], [ 0, %30 ]
  %46 = phi i64 [ %65, %43 ], [ %28, %30 ]
  %47 = getelementptr inbounds [8 x [8 x i32]], [8 x [8 x i32]]* %3, i64 0, i64 %31, i64 %44
  %48 = load i32, i32* %47, align 4, !tbaa !5
  %49 = sext i32 %45 to i64
  %50 = getelementptr inbounds [8 x [8 x i32]], [8 x [8 x i32]]* %3, i64 0, i64 %31, i64 %49
  %51 = load i32, i32* %50, align 4, !tbaa !5
  %52 = icmp sgt i32 %48, %51
  %53 = trunc i64 %44 to i32
  %54 = select i1 %52, i32 %53, i32 %45
  %55 = add nuw nsw i64 %44, 1
  %56 = getelementptr inbounds [8 x [8 x i32]], [8 x [8 x i32]]* %3, i64 0, i64 %31, i64 %55
  %57 = load i32, i32* %56, align 4, !tbaa !5
  %58 = sext i32 %54 to i64
  %59 = getelementptr inbounds [8 x [8 x i32]], [8 x [8 x i32]]* %3, i64 0, i64 %31, i64 %58
  %60 = load i32, i32* %59, align 4, !tbaa !5
  %61 = icmp sgt i32 %57, %60
  %62 = trunc i64 %55 to i32
  %63 = select i1 %61, i32 %62, i32 %54
  %64 = add nuw nsw i64 %44, 2
  %65 = add i64 %46, -2
  %66 = icmp eq i64 %65, 0
  br i1 %66, label %67, label %43, !llvm.loop !12

67:                                               ; preds = %43, %30
  %68 = phi i32 [ undef, %30 ], [ %63, %43 ]
  %69 = phi i64 [ 1, %30 ], [ %64, %43 ]
  %70 = phi i32 [ 0, %30 ], [ %63, %43 ]
  br i1 %29, label %80, label %71

71:                                               ; preds = %67
  %72 = getelementptr inbounds [8 x [8 x i32]], [8 x [8 x i32]]* %3, i64 0, i64 %31, i64 %69
  %73 = load i32, i32* %72, align 4, !tbaa !5
  %74 = sext i32 %70 to i64
  %75 = getelementptr inbounds [8 x [8 x i32]], [8 x [8 x i32]]* %3, i64 0, i64 %31, i64 %74
  %76 = load i32, i32* %75, align 4, !tbaa !5
  %77 = icmp sgt i32 %73, %76
  %78 = trunc i64 %69 to i32
  %79 = select i1 %77, i32 %78, i32 %70
  br label %80

80:                                               ; preds = %67, %71
  %81 = phi i32 [ %68, %67 ], [ %79, %71 ]
  %82 = sext i32 %81 to i64
  %83 = getelementptr inbounds [8 x [8 x i32]], [8 x [8 x i32]]* %3, i64 0, i64 %31, i64 %82
  %84 = load i32, i32* %83, align 4, !tbaa !5
  br label %34

85:                                               ; preds = %10, %20
  %86 = phi i32 [ %114, %20 ], [ %8, %10 ]
  %87 = zext i32 %86 to i64
  br label %88

88:                                               ; preds = %85, %100
  %89 = phi i64 [ 0, %85 ], [ %101, %100 ]
  %90 = getelementptr inbounds [8 x [8 x i32]], [8 x [8 x i32]]* %3, i64 0, i64 %89, i64 0
  %91 = load i32, i32* %90, align 16, !tbaa !5
  br label %94

92:                                               ; preds = %94
  %93 = icmp eq i64 %99, %87
  br i1 %93, label %119, label %94, !llvm.loop !9

94:                                               ; preds = %88, %92
  %95 = phi i64 [ 0, %88 ], [ %99, %92 ]
  %96 = getelementptr inbounds [8 x [8 x i32]], [8 x [8 x i32]]* %3, i64 0, i64 %95, i64 0
  %97 = load i32, i32* %96, align 16, !tbaa !5
  %98 = icmp slt i32 %97, %91
  %99 = add nuw nsw i64 %95, 1
  br i1 %98, label %100, label %92

100:                                              ; preds = %94
  %101 = add nuw nsw i64 %89, 1
  %102 = icmp eq i64 %101, %87
  br i1 %102, label %129, label %88, !llvm.loop !11

103:                                              ; preds = %13, %103
  %104 = phi i64 [ %107, %103 ], [ 0, %13 ]
  %105 = getelementptr inbounds [8 x [8 x i32]], [8 x [8 x i32]]* %3, i64 0, i64 %16, i64 %104
  %106 = call i32 (i8*, ...) @__isoc99_scanf(i8* getelementptr inbounds ([3 x i8], [3 x i8]* @.str.1, i64 0, i64 0), i32* nonnull %105)
  %107 = add nuw nsw i64 %104, 1
  %108 = load i32, i32* %2, align 4, !tbaa !5
  %109 = sext i32 %108 to i64
  %110 = icmp slt i64 %107, %109
  br i1 %110, label %103, label %111, !llvm.loop !13

111:                                              ; preds = %103
  %112 = load i32, i32* %1, align 4, !tbaa !5
  br label %113

113:                                              ; preds = %111, %13
  %114 = phi i32 [ %112, %111 ], [ %14, %13 ]
  %115 = phi i32 [ %108, %111 ], [ %15, %13 ]
  %116 = add nuw nsw i64 %16, 1
  %117 = sext i32 %114 to i64
  %118 = icmp slt i64 %116, %117
  br i1 %118, label %13, label %18, !llvm.loop !14

119:                                              ; preds = %92, %32
  %120 = phi i64 [ %31, %32 ], [ %89, %92 ]
  %121 = phi i32 [ %81, %32 ], [ 0, %92 ]
  %122 = trunc i64 %120 to i32
  %123 = call i32 (i8*, ...) @printf(i8* nonnull dereferenceable(1) getelementptr inbounds ([6 x i8], [6 x i8]* @.str.2, i64 0, i64 0), i32 %122, i32 %121)
  %124 = load i32, i32* %1, align 4, !tbaa !5
  br label %125

125:                                              ; preds = %0, %18, %119
  %126 = phi i32 [ %124, %119 ], [ %114, %18 ], [ %8, %0 ]
  %127 = phi i32 [ %122, %119 ], [ 0, %18 ], [ 0, %0 ]
  %128 = icmp slt i32 %127, %126
  br i1 %128, label %131, label %129

129:                                              ; preds = %100, %40, %125
  %130 = call i32 (i8*, ...) @printf(i8* nonnull dereferenceable(1) getelementptr inbounds ([3 x i8], [3 x i8]* @.str.3, i64 0, i64 0))
  br label %131

131:                                              ; preds = %129, %125
  call void @llvm.lifetime.end.p0i8(i64 256, i8* nonnull %6) #3
  call void @llvm.lifetime.end.p0i8(i64 4, i8* nonnull %5) #3
  call void @llvm.lifetime.end.p0i8(i64 4, i8* nonnull %4) #3
  ret void
}

; Function Attrs: argmemonly mustprogress nofree nosync nounwind willreturn
declare void @llvm.lifetime.start.p0i8(i64 immarg, i8* nocapture) #1

; Function Attrs: nofree nounwind
declare noundef i32 @__isoc99_scanf(i8* nocapture noundef readonly, ...) local_unnamed_addr #2

; Function Attrs: nofree nounwind
declare noundef i32 @printf(i8* nocapture noundef readonly, ...) local_unnamed_addr #2

; Function Attrs: argmemonly mustprogress nofree nosync nounwind willreturn
declare void @llvm.lifetime.end.p0i8(i64 immarg, i8* nocapture) #1


!llvm.module.flags = !{!0, !1, !2, !3}
!llvm.ident = !{!4}

!0 = !{i32 1, !"wchar_size", i32 4}
!1 = !{i32 7, !"PIC Level", i32 2}
!2 = !{i32 7, !"PIE Level", i32 2}
!3 = !{i32 7, !"uwtable", i32 1}
!4 = !{!"clang version 13.0.0"}
!5 = !{!6, !6, i64 0}
!6 = !{!"int", !7, i64 0}
!7 = !{!"omnipotent char", !8, i64 0}
!8 = !{!"Simple C/C++ TBAA"}
!9 = distinct !{!9, !10}
!10 = !{!"llvm.loop.mustprogress"}
!11 = distinct !{!11, !10}
!12 = distinct !{!12, !10}
!13 = distinct !{!13, !10}
!14 = distinct !{!14, !10, !15}
!15 = !{!"llvm.loop.unswitch.partial.disable"}
